(lp0
I4
aI17
aI19
aI20
aI29
aI51
aI102
aI119
aI129
aI158
aI183
aI224
aI226
aI343
aI344
aI360
aI412
aI417
aI443
aI463
aI469
aI486
aI507
aI509
aI515
aI554
aI571
aI578
aI585
aI620
aI632
aI651
aI694
aI702
aI721
aI722
aI757
aI767
aI769
aI772
aI782
aI783
aI785
aI790
aI795
aI805
aI814
aI824
aI832
aI842
aI847
aI877
aI883
aI896
aI901
aI911
aI913
aI948
aI1020
aI1034
aI1039
aI1055
aI1057
aI1063
aI1067
aI1072
aI1105
aI1142
aI1146
aI1152
aI1188
aI1198
aI1218
aI1226
aI1250
aI1252
aI1254
aI1260
aI1266
aI1271
aI1278
aI1302
aI1315
aI1338
aI1348
aI1350
aI1364
aI1368
aI1379
aI1394
aI1424
aI1428
aI1430
aI1452
aI1459
aI1462
aI1485
aI1492
aI1501
aI1509
aI1513
aI1515
aI1517
aI1518
aI1520
aI1521
aI1522
aI1523
aI1527
aI1529
aI1530
aI1531
aI1532
aI1533
aI1534
aI1535
aI1536
aI1537
aI1539
aI1540
aI1541
aI1543
aI1545
aI1546
aI1547
aI1553
aI1574
aI1584
aI1585
aI1606
aI1609
aI1611
aI1617
aI1624
aI1625
aI1638
aI1639
aI1640
aI1642
aI1647
aI1654
aI1655
aI1659
aI1687
aI1706
aI1712
aI1716
aI1739
aI1741
aI1742
aI1743
aI1748
aI1751
aI1752
aI1770
aI1813
aI1815
aI1823
aI1834
aI1859
aI1861
aI1862
aI1867
aI1870
aI1871
aI1872
aI1874
aI1879
aI1880
aI1881
aI1883
aI1895
aI1915
aI1923
aI1934
aI1938
aI1963
aI1966
aI1981
aI1983
aI1989
aI1994
aI1997
aI1998
aI2004
aI2006
aI2009
aI2018
aI2030
aI2094
aI2097
aI2101
aI2147
aI2163
aI2165
aI2192
aI2194
aI2198
aI2215
aI2233
aI2235
aI2242
aI2247
aI2255
aI2275
aI2276
aI2290
aI2304
aI2310
aI2313
aI2319
aI2335
aI2340
aI2341
aI2345
aI2346
aI2348
aI2369
aI2371
aI2374
aI2375
aI2377
aI2378
aI2381
aI2385
aI2389
aI2390
aI2394
aI2396
aI2411
aI2412
aI2416
aI2417
aI2421
aI2422
aI2428
aI2434
aI2435
aI2436
aI2438
aI2440
aI2452
aI2453
aI2454
aI2464
aI2494
aI2504
aI2511
aI2514
aI2517
aI2521
aI2527
aI2528
aI2529
aI2530
aI2537
aI2544
aI2550
aI2556
aI2562
aI2563
aI2568
aI2569
aI2571
aI2574
aI2581
aI2583
aI2585
aI2588
aI2589
aI2601
aI2607
aI2610
aI2620
aI2624
aI2626
aI2628
aI2630
aI2632
aI2634
aI2644
aI2650
aI2651
aI2659
aI2660
aI2663
aI2670
aI2672
aI2691
aI2710
aI2717
aI2718
aI2724
aI2725
aI2730
aI2739
aI2740
aI2742
aI2743
aI2746
aI2751
aI2753
aI2754
aI2762
aI2771
aI2785
aI2788
aI2797
aI2799
aI2802
aI2805
aI2810
aI2813
aI2819
aI2820
aI2821
aI2828
aI2829
aI2830
aI2833
aI2845
aI2849
aI2850
aI2853
aI2864
aI2866
aI2870
aI2879
aI2880
aI2889
aI2892
aI2897
aI2898
aI2919
aI2920
aI2921
aI2924
aI2927
aI2928
aI2929
aI2930
aI2931
aI2932
aI2933
aI2936
aI2937
aI2938
aI2956
aI2963
aI2964
aI2966
aI2969
aI2973
aI2974
aI2975
aI2979
aI2986
aI2987
aI2992
aI3002
aI3003
aI3024
aI3027
aI3028
aI3029
aI3036
aI3037
aI3042
aI3047
aI3050
aI3051
aI3054
aI3055
aI3062
aI3065
aI3068
aI3086
aI3090
aI3092
aI3099
aI3107
aI3111
aI3117
aI3132
aI3133
aI3136
aI3142
aI3143
aI3144
aI3164
aI3165
aI3172
aI3184
aI3185
aI3186
aI3196
aI3208
aI3217
aI3223
aI3232
aI3236
aI3252
aI3253
aI3255
aI3256
aI3260
aI3276
aI3314
aI3318
aI3334
aI3342
aI3345
aI3348
aI3351
aI3353
aI3363
aI3364
aI3368
aI3369
aI3371
aI3375
aI3378
aI3392
aI3393
aI3396
aI3397
aI3400
aI3411
aI3412
aI3414
aI3415
aI3417
aI3435
aI3436
aI3437
aI3438
aI3439
aI3449
aI3450
aI3460
aI3467
aI3470
aI3474
aI3478
aI3486
aI3487
aI3493
aI3497
aI3498
aI3517
aI3545
aI3546
aI3557
aI3559
aI3572
aI3574
aI3583
aI3592
aI3593
aI3605
aI3606
aI3607
aI3616
aI3618
aI3641
aI3650
aI3651
aI3678
aI3689
aI3695
aI3699
aI3701
aI3702
aI3703
aI3708
aI3715
aI3722
aI3733
aI3735
aI3738
aI3739
aI3748
aI3750
aI3754
aI3755
aI3756
aI3757
aI3758
aI3759
aI3760
aI3761
aI3762
aI3765
aI3769
aI3774
aI3779
aI3788
aI3789
aI3814
aI3825
aI3828
aI3836
aI3837
aI3838
aI3846
aI3851
aI3852
aI3860
aI3861
aI3866
aI3868
aI3874
aI3881
aI3909
aI3911
aI3917
aI3922
aI3949
aI3954
aI3968
aI3980
aI3981
aI3982
aI3983
aI3989
aI3994
aI3996
aI4002
aI4003
aI4008
aI4013
aI4026
aI4027
aI4028
aI4035
aI4045
aI4048
aI4065
aI4082
aI4095
aI4102
aI4106
aI4107
aI4121
aI4133
aI4135
aI4144
aI4160
aI4166
aI4168
aI4175
aI4179
aI4189
aI4195
aI4207
aI4210
aI4233
aI4234
aI4235
aI4239
aI4266
aI4268
aI4271
aI4274
aI4277
aI4279
aI4286
aI4314
aI4315
aI4317
aI4318
aI4320
aI4321
aI4322
aI4324
aI4326
aI4331
aI4332
aI4333
aI4334
aI4335
aI4336
aI4337
aI4355
aI4356
aI4365
aI4372
aI4375
aI4380
aI4384
aI4386
aI4388
aI4392
aI4395
aI4411
aI4414
aI4416
aI4418
aI4419
aI4422
aI4431
aI4457
aI4462
aI4468
aI4481
aI4482
aI4483
aI4484
aI4488
aI4490
aI4494
aI4496
aI4497
aI4513
aI4527
aI4550
aI4559
aI4564
aI4566
aI4596
aI4597
aI4601
aI4644
aI4647
aI4655
aI4679
aI4694
aI4704
aI4705
aI4711
aI4715
aI4716
aI4721
aI4722
aI4723
aI4729
aI4740
aI4741
aI4746
aI4758
aI4764
aI4765
aI4766
aI4767
aI4768
aI4769
aI4770
aI4771
aI4774
aI4775
aI4779
aI4780
aI4781
aI4782
aI4784
aI4786
aI4791
aI4793
aI4803
aI4817
aI4841
aI4842
aI4845
aI4846
aI4847
aI4848
aI4849
aI4850
aI4851
aI4855
aI4859
aI4860
aI4862
aI4864
aI4865
aI4866
aI4868
aI4870
aI4875
aI4879
aI4880
aI4884
aI4886
aI4887
aI4892
aI4897
aI4927
aI4928
aI4938
aI4944
aI4949
aI4950
aI4951
aI4953
aI4961
aI4964
aI4993
aI4997
aI5038
aI5040
aI5044
aI5047
aI5053
aI5055
aI5062
aI5063
aI5064
aI5066
aI5067
aI5071
aI5072
aI5074
aI5078
aI5079
aI5083
aI5085
aI5088
aI5089
aI5091
aI5102
aI5114
aI5118
aI5119
aI5130
aI5131
aI5135
aI5158
aI5161
aI5179
aI5185
aI5191
aI5192
aI5198
aI5200
aI5201
aI5215
aI5220
aI5221
aI5279
aI5286
aI5308
aI5309
aI5319
aI5320
aI5321
aI5324
aI5336
aI5337
aI5342
aI5353
aI5355
aI5356
aI5357
aI5358
aI5359
aI5360
aI5373
aI5374
aI5386
aI5387
aI5393
aI5394
aI5395
aI5397
aI5405
aI5406
aI5407
aI5408
aI5410
aI5413
aI5414
aI5415
aI5417
aI5419
aI5424
aI5429
aI5431
aI5432
aI5433
aI5434
aI5438
aI5439
aI5441
aI5442
aI5443
aI5451
aI5452
aI5453
aI5454
aI5456
aI5457
aI5458
aI5459
aI5461
aI5462
aI5463
aI5464
aI5465
aI5466
aI5467
aI5468
aI5469
aI5470
aI5471
aI5472
aI5473
aI5479
aI5480
aI5481
aI5482
aI5483
aI5484
aI5485
aI5486
aI5487
aI5488
aI5489
aI5490
aI5491
aI5492
aI5493
aI5494
aI5495
aI5496
aI5497
aI5498
aI5499
aI5501
aI5503
aI5507
aI5513
aI5533
aI5540
aI5541
aI5545
aI5550
aI5553
aI5557
aI5560
aI5570
aI5571
aI5573
aI5574
aI5575
aI5577
aI5578
aI5579
aI5581
aI5583
aI5587
aI5604
aI5610
aI5616
aI5617
aI5623
aI5652
aI5653
aI5656
aI5660
aI5667
aI5671
aI5672
aI5675
aI5676
aI5679
aI5682
aI5684
aI5686
aI5689
aI5691
aI5695
aI5696
aI5708
aI5714
aI5715
aI5725
aI5726
aI5733
aI5748
aI5750
aI5751
aI5755
aI5770
aI5772
aI5780
aI5782
aI5783
aI5784
aI5786
aI5787
aI5789
aI5794
aI5797
aI5803
aI5810
aI5814
aI5822
aI5823
aI5825
aI5837
aI5850
aI5860
aI5861
aI5862
aI5864
aI5866
aI5881
aI5883
aI5886
aI5887
aI5893
aI5909
aI5910
aI5914
aI5917
aI5920
aI5928
aI5929
aI5930
aI5931
aI5932
aI5933
aI5942
aI5943
aI5964
aI5970
aI5972
aI5973
aI5978
aI5991
aI5992
aI5996
aI6003
aI6009
aI6021
aI6022
aI6033
aI6042
aI6052
aI6065
aI6067
aI6084
aI6089
aI6092
aI6093
aI6103
aI6105
aI6107
aI6108
aI6134
aI6138
aI6140
aI6147
aI6148
aI6149
aI6153
aI6160
aI6162
aI6174
aI6194
aI6195
aI6199
aI6206
aI6209
aI6212
aI6214
aI6217
aI6221
aI6222
aI6240
aI6243
aI6251
aI6257
aI6262
aI6264
aI6274
aI6277
aI6280
aI6283
aI6287
aI6305
aI6307
aI6311
aI6317
aI6335
aI6341
aI6381
aI6385
aI6403
aI6405
aI6412
aI6416
aI6436
aI6437
aI6442
aI6448
aI6451
aI6454
aI6456
aI6457
aI6459
aI6461
aI6479
aI6481
aI6487
aI6488
aI6490
aI6492
aI6493
aI6513
aI6515
aI6528
aI6530
aI6531
aI6550
aI6570
aI6574
aI6586
aI6590
aI6595
aI6600
aI6602
aI6604
aI6628
aI6631
aI6644
aI6647
aI6649
aI6654
aI6661
aI6662
aI6663
aI6669
aI6671
aI6680
aI6681
aI6684
aI6692
aI6694
aI6696
aI6704
aI6706
aI6707
aI6713
aI6719
aI6761
aI6762
aI6763
aI6782
aI6793
aI6796
aI6798
aI6799
aI6804
aI6819
aI6825
aI6829
aI6841
aI6855
aI6876
aI6880
aI6883
aI6886
aI6889
aI6890
aI6900
aI6902
aI6924
aI6927
aI6929
aI6933
aI6934
aI6935
aI6950
aI6951
aI6956
aI6957
aI6959
aI6961
aI6962
aI6967
aI6976
aI6982
aI6983
aI6984
aI7021
aI7023
aI7029
aI7030
aI7035
aI7039
aI7057
aI7060
aI7066
aI7069
aI7074
aI7077
aI7078
aI7081
aI7088
aI7092
aI7096
aI7097
aI7117
aI7124
aI7134
aI7146
aI7157
aI7169
aI7174
aI7176
aI7181
aI7192
aI7200
aI7202
aI7203
aI7204
aI7207
aI7208
aI7218
aI7239
aI7251
aI7275
aI7285
aI7289
aI7290
aI7294
aI7298
aI7300
aI7301
aI7310
aI7318
aI7323
aI7324
aI7325
aI7327
aI7329
aI7333
aI7338
aI7350
aI7351
aI7358
aI7359
aI7374
aI7390
aI7415
aI7416
aI7419
aI7426
aI7428
aI7432
aI7433
aI7434
aI7435
aI7436
aI7437
aI7438
aI7439
aI7440
aI7449
aI7455
aI7466
aI7489
aI7503
aI7523
aI7524
aI7525
aI7526
aI7529
aI7530
aI7531
aI7533
aI7537
aI7539
aI7564
aI7566
aI7568
aI7569
aI7570
aI7571
aI7572
aI7573
aI7574
aI7576
aI7578
aI7579
aI7580
aI7582
aI7590
aI7591
aI7595
aI7596
aI7597
aI7599
aI7600
aI7602
aI7603
aI7606
aI7607
aI7613
aI7615
aI7619
aI7621
aI7622
aI7624
aI7633
aI7634
aI7635
aI7636
aI7637
aI7638
aI7639
aI7642
aI7643
aI7644
aI7647
aI7655
aI7658
aI7667
aI7669
aI7670
aI7671
aI7672
aI7673
aI7674
aI7675
aI7676
aI7677
aI7678
aI7679
aI7681
aI7683
aI7684
aI7695
aI7702
aI7705
aI7716
aI7718
aI7723
aI7727
aI7730
aI7732
aI7733
aI7734
aI7735
aI7736
aI7738
aI7739
aI7740
aI7741
aI7742
aI7743
aI7744
aI7745
aI7746
aI7748
aI7767
aI7768
aI7769
aI7770
aI7771
aI7772
aI7773
aI7774
aI7778
aI7783
aI7788
aI7790
aI7791
aI7792
aI7793
aI7795
aI7796
aI7800
aI7802
aI7804
aI7807
aI7810
aI7814
aI7835
aI7859
aI7877
aI7883
aI7884
aI7886
aI7887
aI7888
aI7889
aI7890
aI7891
aI7907
aI7910
aI7919
aI7922
aI7923
aI7924
aI7925
aI7926
aI7927
aI7928
aI7929
aI7930
aI7933
aI7934
aI7935
aI7936
aI7937
aI7939
aI7941
aI7953
aI7954
aI7955
aI7957
aI7958
aI7959
aI7961
aI7963
aI7964
aI7965
aI7966
aI7967
aI7968
aI7979
aI7982
aI7983
aI7985
aI7986
aI7987
aI7988
aI7989
aI7992
aI7993
aI7994
aI8008
aI8014
aI8015
aI8020
aI8021
aI8022
aI8035
aI8037
aI8050
aI8051
aI8052
aI8053
aI8055
aI8063
aI8073
aI8074
aI8075
aI8077
aI8078
aI8079
aI8083
aI8084
aI8085
aI8115
aI8118
aI8129
aI8130
aI8131
aI8132
aI8133
aI8135
aI8142
aI8145
aI8146
aI8148
aI8149
aI8150
aI8158
aI8162
aI8167
aI8168
aI8169
aI8170
aI8171
aI8172
aI8173
aI8174
aI8176
aI8179
aI8180
aI8181
aI8182
aI8183
aI8184
aI8185
aI8186
aI8187
aI8188
aI8189
aI8192
aI8213
aI8215
aI8222
aI8231
aI8234
aI8235
aI8239
aI8240
aI8249
aI8254
aI8255
aI8258
aI8259
aI8262
aI8263
aI8264
aI8266
aI8269
aI8270
aI8271
aI8274
aI8275
aI8276
aI8285
aI8288
aI8299
aI8312
aI8323
aI8324
aI8329
aI8331
aI8334
aI8336
aI8340
aI8360
aI8370
aI8379
aI8381
aI8398
aI8399
aI8400
aI8401
aI8402
aI8404
aI8413
aI8418
aI8437
aI8443
aI8447
aI8449
aI8453
aI8462
aI8470
aI8474
aI8484
aI8486
aI8488
aI8490
aI8496
aI8498
aI8502
aI8503
aI8513
aI8517
aI8530
aI8546
aI8547
aI8550
aI8561
aI8569
aI8574
aI8587
aI8592
aI8594
aI8596
aI8599
aI8606
aI8614
aI8618
aI8636
aI8642
aI8652
aI8657
aI8659
aI8663
aI8675
aI8678
aI8686
aI8691
aI8698
aI8700
aI8704
aI8705
aI8722
aI8752
aI8757
aI8760
aI8766
aI8788
aI8799
aI8802
aI8806
aI8810
aI8816
aI8836
aI8842
aI8844
aI8854
aI8860
aI8862
aI8865
aI8866
aI8867
aI8868
aI8876
aI8878
aI8879
aI8881
aI8889
aI8899
aI8902
aI8903
aI8904
aI8905
aI8906
aI8907
aI8908
aI8909
aI8925
aI8930
aI8931
aI8933
aI8939
aI8941
aI8943
aI8952
aI8968
aI8969
aI8982
aI8984
aI8986
aI9001
aI9016
aI9019
aI9023
aI9058
aI9062
aI9064
aI9068
aI9072
aI9091
aI9111
aI9113
aI9115
aI9131
aI9137
aI9144
aI9146
aI9154
aI9160
aI9164
aI9177
aI9197
aI9198
aI9206
aI9208
aI9209
aI9210
aI9211
aI9214
aI9220
aI9222
aI9226
aI9228
aI9229
aI9231
aI9236
aI9238
aI9240
aI9245
aI9246
aI9248
aI9249
aI9261
aI9263
aI9270
aI9273
aI9283
aI9284
aI9288
aI9296
aI9310
aI9346
aI9360
aI9369
aI9396
aI9402
aI9409
aI9411
aI9424
aI9445
aI9460
aI9461
aI9465
aI9467
aI9468
aI9475
aI9476
aI9478
aI9479
aI9492
aI9495
aI9516
aI9527
aI9528
aI9529
aI9539
aI9548
aI9557
aI9558
aI9570
aI9586
aI9603
aI9609
aI9619
aI9628
aI9631
aI9632
aI9635
aI9642
aI9643
aI9648
aI9657
aI9663
aI9665
aI9667
aI9674
aI9686
aI9705
aI9721
aI9736
aI9737
aI9741
aI9774
aI9775
aI9791
aI9802
aI9803
aI9804
aI9805
aI9806
aI9810
aI9811
aI9812
aI9813
aI9814
aI9821
aI9822
aI9833
aI9834
aI9835
aI9839
aI9849
aI9853
aI9854
aI9860
aI9861
aI9865
aI9866
aI9867
aI9868
aI9890
aI9891
aI9895
aI9908
aI9916
aI9936
aI9944
aI9954
aI9955
aI9970
aI9971
aI9978
aI9998
aI10013
aI10016
aI10017
aI10019
aI10021
aI10024
aI10030
aI10033
aI10035
aI10036
aI10041
aI10042
aI10046
aI10051
aI10053
aI10090
aI10092
aI10096
aI10100
aI10102
aI10103
aI10116
aI10117
aI10123
aI10128
aI10135
aI10139
aI10142
aI10143
aI10146
aI10160
aI10174
aI10177
aI10178
aI10179
aI10189
aI10193
aI10194
aI10201
aI10217
aI10218
aI10225
aI10231
aI10232
aI10235
aI10236
aI10237
aI10245
aI10252
aI10253
aI10254
aI10255
aI10262
aI10273
aI10277
aI10283
aI10285
aI10288
aI10294
aI10299
aI10313
aI10318
aI10335
aI10340
aI10344
aI10354
aI10357
aI10370
aI10373
aI10374
aI10375
aI10402
aI10403
aI10405
aI10408
aI10416
aI10421
aI10451
aI10460
aI10463
aI10466
aI10474
aI10478
aI10479
aI10480
aI10485
aI10486
aI10493
aI10494
aI10495
aI10496
aI10497
aI10498
aI10499
aI10500
aI10501
aI10503
aI10504
aI10506
aI10507
aI10508
aI10509
aI10511
aI10512
aI10513
aI10514
aI10515
aI10516
aI10518
aI10521
aI10522
aI10525
aI10535
aI10546
aI10580
aI10587
aI10588
aI10591
aI10597
aI10605
aI10609
aI10613
aI10616
aI10617
aI10619
aI10637
aI10639
aI10643
aI10650
aI10651
aI10657
aI10662
aI10663
aI10665
aI10666
aI10668
aI10670
aI10671
aI10672
aI10675
aI10676
aI10678
aI10680
aI10681
aI10682
aI10686
aI10687
aI10688
aI10689
aI10700
aI10701
aI10703
aI10707
aI10713
aI10719
aI10721
aI10723
aI10727
aI10729
aI10733
aI10734
aI10737
aI10749
aI10760
aI10768
aI10783
aI10786
aI10787
aI10788
aI10789
aI10792
aI10797
aI10799
aI10800
aI10801
aI10802
aI10812
aI10815
aI10817
aI10818
aI10819
aI10828
aI10829
aI10832
aI10833
aI10835
aI10848
aI10859
aI10862
aI10863
aI10864
aI10866
aI10867
aI10868
aI10869
aI10870
aI10871
aI10874
aI10878
aI10879
aI10881
aI10885
aI10890
aI10909
aI10917
aI10923
aI10927
aI10929
aI10934
aI10942
aI10945
aI10946
aI10953
aI10959
aI10973
aI10982
aI11010
aI11012
aI11013
aI11014
aI11017
aI11023
aI11025
aI11034
aI11035
aI11037
aI11038
aI11039
aI11040
aI11041
aI11044
aI11045
aI11049
aI11053
aI11054
aI11055
aI11070
aI11072
aI11073
aI11075
aI11077
aI11078
aI11079
aI11080
aI11081
aI11082
aI11099
aI11100
aI11101
aI11114
aI11131
aI11145
aI11157
aI11159
aI11160
aI11161
aI11164
aI11173
aI11178
aI11179
aI11180
aI11182
aI11183
aI11184
aI11185
aI11186
aI11187
aI11189
aI11191
aI11195
aI11197
aI11200
aI11201
aI11202
aI11210
aI11224
aI11240
aI11241
aI11244
aI11254
aI11275
aI11278
aI11281
aI11286
aI11287
aI11293
aI11298
aI11304
aI11306
aI11319
aI11333
aI11337
aI11345
aI11357
aI11358
aI11361
aI11364
aI11366
aI11367
aI11368
aI11369
aI11370
aI11372
aI11375
aI11376
aI11379
aI11380
aI11382
aI11383
aI11390
aI11398
aI11406
aI11414
aI11419
aI11421
aI11424
aI11430
aI11434
aI11446
aI11448
aI11450
aI11456
aI11461
aI11462
aI11463
aI11467
aI11469
aI11483
aI11491
aI11501
aI11504
aI11516
aI11518
aI11519
aI11521
aI11522
aI11523
aI11524
aI11525
aI11526
aI11527
aI11528
aI11529
aI11530
aI11531
aI11532
aI11533
aI11534
aI11535
aI11536
aI11537
aI11538
aI11539
aI11541
aI11542
aI11543
aI11544
aI11549
aI11550
aI11555
aI11556
aI11557
aI11558
aI11559
aI11560
aI11561
aI11562
aI11564
aI11565
aI11566
aI11567
aI11568
aI11569
aI11570
aI11572
aI11577
aI11578
aI11579
aI11580
aI11590
aI11591
aI11600
aI11607
aI11608
aI11609
aI11612
aI11613
aI11615
aI11621
aI11622
aI11625
aI11627
aI11642
aI11656
aI11663
aI11666
aI11672
aI11684
aI11697
aI11704
aI11708
aI11715
aI11718
aI11719
aI11720
aI11723
aI11725
aI11729
aI11731
aI11735
aI11752
aI11756
aI11759
aI11762
aI11773
aI11777
aI11779
aI11780
aI11784
aI11789
aI11790
aI11791
aI11792
aI11821
aI11827
aI11828
aI11833
aI11840
aI11859
aI11862
aI11865
aI11866
aI11872
aI11878
aI11880
aI11886
aI11889
aI11894
aI11897
aI11898
aI11901
aI11903
aI11904
aI11909
aI11913
aI11917
aI11920
aI11922
aI11925
aI11933
aI11935
aI11941
aI11942
aI11945
aI11963
aI11970
aI11971
aI11974
aI11975
aI11983
aI11995
aI11998
aI12004
aI12012
aI12021
aI12024
aI12035
aI12039
aI12040
aI12044
aI12054
aI12069
aI12076
aI12082
aI12085
aI12088
aI12096
aI12099
aI12114
aI12117
aI12118
aI12119
aI12120
aI12122
aI12131
aI12137
aI12142
aI12145
aI12147
aI12154
aI12155
aI12169
aI12173
aI12175
aI12180
aI12184
aI12193
aI12194
aI12196
aI12200
aI12202
aI12203
aI12223
aI12229
aI12231
aI12236
aI12247
aI12252
aI12254
aI12259
aI12262
aI12263
aI12266
aI12271
aI12273
aI12280
aI12288
aI12290
aI12291
aI12301
aI12305
aI12310
aI12314
aI12332
aI12337
aI12340
aI12342
aI12344
aI12352
aI12353
aI12356
aI12381
aI12386
aI12393
aI12396
aI12400
aI12403
aI12407
aI12408
aI12433
aI12440
aI12443
aI12445
aI12450
aI12452
aI12453
aI12454
aI12456
aI12457
aI12458
aI12459
aI12460
aI12463
aI12464
aI12465
aI12477
aI12481
aI12491
aI12499
aI12506
aI12518
aI12519
aI12522
aI12550
aI12557
aI12558
aI12570
aI12623
aI12637
aI12646
aI12647
aI12658
aI12659
aI12661
aI12664
aI12668
aI12674
aI12676
aI12678
aI12679
aI12684
aI12685
aI12689
aI12694
aI12696
aI12701
aI12702
aI12703
aI12704
aI12705
aI12710
aI12713
aI12717
aI12725
aI12727
aI12732
aI12733
aI12735
aI12737
aI12739
aI12741
aI12742
aI12743
aI12744
aI12750
aI12751
aI12754
aI12763
aI12764
aI12765
aI12766
aI12768
aI12769
aI12770
aI12773
aI12774
aI12775
aI12797
aI12799
aI12801
aI12802
aI12806
aI12807
aI12808
aI12811
aI12814
aI12818
aI12819
aI12820
aI12821
aI12823
aI12824
aI12825
aI12831
aI12833
aI12834
aI12835
aI12842
aI12843
aI12844
aI12845
aI12846
aI12849
aI12852
aI12855
aI12856
aI12857
aI12858
aI12862
aI12863
aI12864
aI12865
aI12867
aI12869
aI12880
aI12884
aI12886
aI12888
aI12894
aI12896
aI12900
aI12903
aI12912
aI12924
aI12932
aI12936
aI12937
aI12958
aI12975
aI12976
aI12977
aI12978
aI12981
aI12985
aI12988
aI12989
aI12990
aI12991
aI12992
aI12995
aI12996
aI13000
aI13002
aI13003
aI13004
aI13005
aI13006
aI13007
aI13008
aI13009
aI13010
aI13011
aI13012
aI13013
aI13014
aI13015
aI13016
aI13017
aI13019
aI13021
aI13031
aI13032
aI13033
aI13034
aI13035
aI13036
aI13037
aI13039
aI13055
aI13058
aI13059
aI13060
aI13062
aI13063
aI13064
aI13065
aI13066
aI13067
aI13069
aI13070
aI13071
aI13072
aI13074
aI13076
aI13077
aI13078
aI13079
aI13080
aI13081
aI13082
aI13083
aI13084
aI13086
aI13087
aI13088
aI13089
aI13090
aI13091
aI13092
aI13093
aI13094
aI13095
aI13096
aI13097
aI13099
aI13102
aI13103
aI13104
aI13105
aI13107
aI13108
aI13109
aI13121
aI13122
aI13132
aI13134
aI13138
aI13141
aI13142
aI13143
aI13144
aI13146
aI13147
aI13148
aI13149
aI13150
aI13151
aI13153
aI13158
aI13159
aI13160
aI13165
aI13166
aI13167
aI13168
aI13169
aI13170
aI13176
aI13177
aI13178
aI13179
aI13180
aI13181
aI13183
aI13184
aI13185
aI13186
aI13187
aI13188
aI13189
aI13190
aI13191
aI13192
aI13193
aI13202
aI13204
aI13206
aI13209
aI13214
aI13215
aI13216
aI13217
aI13218
aI13219
aI13222
aI13223
aI13227
aI13228
aI13229
aI13230
aI13231
aI13232
aI13233
aI13234
aI13235
aI13236
aI13237
aI13246
aI13248
aI13249
aI13250
aI13251
aI13252
aI13254
aI13255
aI13256
aI13257
aI13258
aI13259
aI13261
aI13262
aI13263
aI13264
aI13265
aI13268
aI13269
aI13270
aI13273
aI13278
aI13287
aI13288
aI13289
aI13290
aI13291
aI13292
aI13297
aI13307
aI13313
aI13316
aI13326
aI13327
aI13328
aI13330
aI13333
aI13334
aI13335
aI13343
aI13345
aI13346
aI13347
aI13349
aI13352
aI13354
aI13370
aI13371
aI13372
aI13379
aI13390
aI13402
aI13418
aI13425
aI13438
aI13439
aI13440
aI13441
aI13445
aI13492
aI13517
aI13528
aI13533
aI13570
aI13582
aI13600
aI13607
aI13608
aI13609
aI13614
aI13624
aI13630
aI13631
aI13640
aI13641
aI13642
aI13643
aI13650
aI13672
aI13673
aI13688
aI13698
aI13699
aI13706
aI13707
aI13716
aI13718
aI13731
aI13738
aI13753
aI13768
aI13770
aI13782
aI13793
aI13794
aI13806
aI13816
aI13819
aI13822
aI13827
aI13828
aI13832
aI13844
aI13865
aI13872
aI13877
aI13882
aI13886
aI13887
aI13897
aI13899
aI13903
aI13907
aI13914
aI13918
aI13929
aI13930
aI13932
aI13935
aI13936
aI13948
aI13956
aI13959
aI13963
aI13971
aI13986
aI13988
aI13998
aI14005
aI14007
aI14025
aI14030
aI14034
aI14035
aI14055
aI14056
aI14070
aI14084
aI14086
aI14087
aI14090
aI14095
aI14096
aI14099
aI14105
aI14116
aI14121
aI14122
aI14132
aI14146
aI14165
aI14166
aI14172
aI14179
aI14185
aI14194
aI14196
aI14197
aI14202
aI14209
aI14229
aI14230
aI14231
aI14232
aI14233
aI14251
aI14252
aI14253
aI14254
aI14266
aI14268
aI14272
aI14276
aI14291
aI14292
aI14293
aI14294
aI14295
aI14296
aI14299
aI14307
aI14308
aI14324
aI14327
aI14328
aI14332
aI14333
aI14334
aI14336
aI14337
aI14338
aI14346
aI14347
aI14352
aI14355
aI14360
aI14361
aI14362
aI14366
aI14374
aI14382
aI14385
aI14406
aI14408
aI14410
aI14411
aI14421
aI14434
aI14435
aI14441
aI14443
aI14447
aI14467
aI14469
aI14482
aI14488
aI14493
aI14494
aI14498
aI14501
aI14504
aI14505
aI14507
aI14509
aI14513
aI14544
aI14545
aI14546
aI14547
aI14552
aI14562
aI14563
aI14572
aI14582
aI14592
aI14600
aI14603
aI14605
aI14610
aI14634
aI14639
aI14644
aI14660
aI14668
aI14672
aI14677
aI14679
aI14680
aI14699
aI14701
aI14703
aI14727
aI14733
aI14742
aI14745
aI14753
aI14755
aI14761
aI14779
aI14780
aI14796
aI14798
aI14801
aI14815
aI14821
aI14823
aI14825
aI14837
aI14839
aI14848
aI14873
aI14876
aI14883
aI14887
aI14889
aI14890
aI14893
aI14894
aI14899
aI14908
aI14914
aI14926
aI14927
aI14949
aI14950
aI14951
aI14955
aI14958
aI14959
aI14960
aI14968
aI14976
aI14979
aI14980
aI14994
aI15019
aI15026
aI15029
aI15030
aI15032
aI15037
aI15049
aI15052
aI15054
aI15055
aI15075
aI15077
aI15078
aI15086
aI15089
aI15092
aI15096
aI15097
aI15098
aI15101
aI15105
aI15106
aI15108
aI15110
aI15111
aI15120
aI15130
aI15131
aI15135
aI15136
aI15144
aI15145
aI15147
aI15148
aI15149
aI15167
aI15170
aI15171
aI15181
aI15188
aI15189
aI15191
aI15197
aI15199
aI15205
aI15207
aI15210
aI15214
aI15218
aI15219
aI15221
aI15222
aI15228
aI15234
aI15235
aI15237
aI15244
aI15256
aI15260
aI15261
aI15262
aI15263
aI15264
aI15265
aI15266
aI15269
aI15277
aI15278
aI15280
aI15281
aI15285
aI15289
aI15295
aI15298
aI15299
aI15300
aI15301
aI15302
aI15303
aI15313
aI15316
aI15317
aI15319
aI15324
aI15325
aI15343
aI15345
aI15346
aI15360
aI15362
aI15364
aI15366
aI15367
aI15370
aI15377
aI15379
aI15383
aI15384
aI15386
aI15387
aI15388
aI15389
aI15390
aI15391
aI15409
aI15411
aI15413
aI15414
aI15415
aI15418
aI15422
aI15431
aI15436
aI15437
aI15438
aI15439
aI15441
aI15442
aI15453
aI15458
aI15461
aI15482
aI15483
aI15501
aI15502
aI15514
aI15533
aI15535
aI15540
aI15542
aI15556
aI15570
aI15575
aI15581
aI15582
aI15583
aI15584
aI15595
aI15596
aI15600
aI15621
aI15635
aI15661
aI15665
aI15672
aI15676
aI15692
aI15695
aI15697
aI15709
aI15710
aI15721
aI15723
aI15729
aI15731
aI15732
aI15736
aI15743
aI15745
aI15756
aI15786
aI15802
aI15803
aI15812
aI15813
aI15846
aI15856
aI15860
aI15876
aI15880
aI15881
aI15882
aI15898
aI15909
aI15910
aI15911
aI15915
aI15920
aI15929
aI15934
aI15935
aI15936
aI15938
aI15946
aI15949
aI15959
aI15961
aI15973
aI15976
aI15977
aI15982
aI15990
aI15993
aI15994
aI15997
aI16001
aI16008
aI16011
aI16013
aI16016
aI16030
aI16033
aI16039
aI16040
aI16042
aI16044
aI16049
aI16050
aI16051
aI16069
aI16076
aI16080
aI16081
aI16082
aI16085
aI16091
aI16093
aI16102
aI16106
aI16108
aI16111
aI16116
aI16118
aI16120
aI16122
aI16127
aI16131
aI16132
aI16136
aI16137
aI16140
aI16146
aI16150
aI16153
aI16154
aI16160
aI16164
aI16172
aI16181
aI16183
aI16195
aI16196
aI16202
aI16218
aI16224
aI16225
aI16226
aI16234
aI16235
aI16236
aI16237
aI16240
aI16244
aI16250
aI16254
aI16259
aI16260
aI16261
aI16265
aI16267
aI16272
aI16275
aI16280
aI16286
aI16290
aI16291
aI16306
aI16308
aI16309
aI16317
aI16321
aI16322
aI16324
aI16328
aI16332
aI16342
aI16349
aI16359
aI16370
aI16371
aI16376
aI16382
aI16398
aI16399
aI16413
aI16416
aI16437
aI16450
aI16451
aI16463
aI16465
aI16466
aI16474
aI16478
aI16481
aI16489
aI16491
aI16494
aI16502
aI16513
aI16514
aI16520
aI16523
aI16527
aI16529
aI16535
aI16536
aI16541
aI16542
aI16543
aI16544
aI16548
aI16557
aI16567
aI16578
aI16587
aI16598
aI16600
aI16601
aI16611
aI16613
aI16616
aI16626
aI16627
aI16674
aI16685
aI16690
aI16698
aI16741
aI16754
aI16759
aI16761
aI16764
aI16766
aI16770
aI16773
aI16776
aI16777
aI16781
aI16782
aI16783
aI16786
aI16803
aI16812
aI16816
aI16840
aI16841
aI16849
aI16857
aI16859
aI16863
aI16872
aI16878
aI16881
aI16882
aI16887
aI16888
aI16890
aI16893
aI16894
aI16897
aI16915
aI16917
aI16921
aI16927
aI16928
aI16930
aI16931
aI16933
aI16936
aI16942
aI16953
aI16955
aI16956
aI16957
aI16960
aI16964
aI16972
aI16974
aI16976
aI16978
aI16980
aI16994
aI16998
aI16999
aI17004
aI17021
aI17024
aI17026
aI17027
aI17028
aI17030
aI17049
aI17052
aI17072
aI17075
aI17076
aI17082
aI17088
aI17094
aI17095
aI17096
aI17160
aI17165
aI17166
aI17167
aI17184
aI17188
aI17197
aI17200
aI17201
aI17202
aI17203
aI17204
aI17205
aI17207
aI17216
aI17245
aI17249
aI17261
aI17263
aI17275
aI17284
aI17292
aI17302
aI17305
aI17306
aI17337
aI17346
aI17358
aI17365
aI17368
aI17377
aI17383
aI17384
aI17386
aI17398
aI17411
aI17420
aI17423
aI17425
aI17427
aI17430
aI17432
aI17441
aI17444
aI17454
aI17464
aI17467
aI17468
aI17469
aI17480
aI17482
aI17489
aI17492
aI17495
aI17496
aI17498
aI17500
aI17501
aI17502
aI17506
aI17508
aI17511
aI17512
aI17514
aI17522
aI17525
aI17529
aI17535
aI17539
aI17540
aI17541
aI17547
aI17548
aI17550
aI17553
aI17554
aI17556
aI17563
aI17564
aI17566
aI17569
aI17572
aI17573
aI17574
aI17575
aI17604
aI17607
aI17608
aI17609
aI17610
aI17611
aI17613
aI17615
aI17617
aI17621
aI17628
aI17630
aI17631
aI17638
aI17639
aI17640
aI17641
aI17642
aI17643
aI17644
aI17645
aI17646
aI17648
aI17649
aI17651
aI17654
aI17655
aI17657
aI17662
aI17663
aI17664
aI17665
aI17666
aI17667
aI17668
aI17669
aI17670
aI17672
aI17674
aI17675
aI17677
aI17678
aI17679
aI17680
aI17682
aI17683
aI17686
aI17688
aI17690
aI17691
aI17693
aI17695
aI17696
aI17697
aI17698
aI17699
aI17700
aI17701
aI17704
aI17705
aI17706
aI17707
aI17708
aI17709
aI17711
aI17712
aI17717
aI17718
aI17719
aI17721
aI17726
aI17727
aI17731
aI17733
aI17737
aI17740
aI17742
aI17743
aI17748
aI17751
aI17752
aI17753
aI17755
aI17756
aI17759
aI17761
aI17762
aI17764
aI17765
aI17767
aI17769
aI17771
aI17775
aI17791
aI17822
aI17823
aI17824
aI17825
aI17828
aI17830
aI17833
aI17840
aI17846
aI17849
aI17851
aI17867
aI17873
aI17874
aI17876
aI17882
aI17884
aI17889
aI17890
aI17891
aI17895
aI17901
aI17904
aI17906
aI17915
aI17920
aI17934
aI17937
aI17950
aI17951
aI17952
aI17953
aI17957
aI17962
aI17970
aI17973
aI17974
aI17975
aI17977
aI17992
aI17993
aI17994
aI17996
aI18012
aI18017
aI18026
aI18027
aI18028
aI18035
aI18036
aI18038
aI18047
aI18051
aI18056
aI18059
aI18060
aI18068
aI18071
aI18076
aI18077
aI18078
aI18082
aI18086
aI18093
aI18109
aI18111
aI18112
aI18114
aI18115
aI18120
aI18126
aI18132
aI18133
aI18138
aI18139
aI18144
aI18146
aI18149
aI18150
aI18151
aI18157
aI18160
aI18169
aI18175
aI18176
aI18180
aI18181
aI18188
aI18190
aI18197
aI18206
aI18208
aI18212
aI18213
aI18217
aI18221
aI18222
aI18231
aI18235
aI18238
aI18239
aI18243
aI18244
aI18245
aI18251
aI18252
aI18257
aI18258
aI18259
aI18260
aI18262
aI18265
aI18267
aI18273
aI18274
aI18276
aI18281
aI18285
aI18290
aI18291
aI18292
aI18293
aI18295
aI18296
aI18297
aI18298
aI18299
aI18300
aI18301
aI18302
aI18303
aI18304
aI18305
aI18307
aI18308
aI18311
aI18316
aI18320
aI18321
aI18322
aI18323
aI18324
aI18325
aI18328
aI18340
aI18343
aI18350
aI18352
aI18353
aI18357
aI18359
aI18361
aI18362
aI18368
aI18369
aI18370
aI18371
aI18372
aI18373
aI18375
aI18376
aI18390
aI18394
aI18395
aI18396
aI18397
aI18406
aI18421
aI18423
aI18436
aI18439
aI18444
aI18453
aI18459
aI18460
aI18461
aI18467
aI18474
aI18487
aI18494
aI18499
aI18504
aI18505
aI18506
aI18507
aI18508
aI18511
aI18512
aI18515
aI18516
aI18517
aI18521
aI18524
aI18526
aI18527
aI18528
aI18529
aI18530
aI18531
aI18532
aI18534
aI18535
aI18537
aI18540
aI18541
aI18543
aI18544
aI18549
aI18550
aI18552
aI18557
aI18559
aI18560
aI18562
aI18566
aI18569
aI18570
aI18571
aI18572
aI18574
aI18575
aI18576
aI18583
aI18584
aI18586
aI18599
aI18604
aI18618
aI18619
aI18629
aI18631
aI18634
aI18637
aI18643
aI18644
aI18646
aI18651
aI18656
aI18657
aI18664
aI18687
aI18688
aI18690
aI18692
aI18694
aI18695
aI18698
aI18700
aI18702
aI18704
aI18708
aI18709
aI18713
aI18714
aI18717
aI18720
aI18721
aI18723
aI18724
aI18726
aI18731
aI18733
aI18734
aI18735
aI18741
aI18748
aI18751
aI18756
aI18758
aI18759
aI18766
aI18770
aI18774
aI18782
aI18787
aI18797
aI18825
aI18827
aI18831
aI18843
aI18847
aI18861
aI18879
aI18886
aI18892
aI18894
aI18901
aI18909
aI18910
aI18912
aI18920
aI18928
aI18929
aI18930
aI18932
aI18942
aI18946
aI18949
aI18951
aI18952
aI18953
aI18954
aI18955
aI18956
aI18959
aI18960
aI18961
aI18962
aI18963
aI18964
aI18966
aI18967
aI18968
aI18971
aI18972
aI18975
aI18977
aI18979
aI18981
aI18987
aI18988
aI18989
aI18993
aI19014
aI19015
aI19017
aI19030
aI19033
aI19037
aI19045
aI19057
aI19058
aI19063
aI19064
aI19075
aI19086
aI19092
aI19105
aI19111
aI19114
aI19117
aI19124
aI19125
aI19131
aI19137
aI19154
aI19158
aI19162
aI19167
aI19175
aI19177
aI19180
aI19185
aI19187
aI19190
aI19191
aI19193
aI19198
aI19200
aI19202
aI19203
aI19204
aI19205
aI19210
aI19213
aI19214
aI19220
aI19232
aI19235
aI19245
aI19247
aI19251
aI19262
aI19266
aI19267
aI19272
aI19273
aI19276
aI19282
aI19292
aI19297
aI19303
aI19309
aI19317
aI19323
aI19330
aI19333
aI19337
aI19338
aI19341
aI19348
aI19352
aI19356
aI19383
aI19405
aI19406
aI19407
aI19437
aI19441
aI19450
aI19457
aI19471
aI19474
aI19475
aI19482
aI19483
aI19489
aI19502
aI19507
aI19509
aI19511
aI19517
aI19524
aI19533
aI19535
aI19549
aI19570
aI19575
aI19581
aI19583
aI19591
aI19605
aI19611
aI19619
aI19631
aI19643
aI19647
aI19649
aI19683
aI19686
aI19691
aI19694
aI19700
aI19701
aI19702
aI19704
aI19713
aI19726
aI19727
aI19728
aI19729
aI19730
aI19731
aI19732
aI19733
aI19738
aI19740
aI19743
aI19748
aI19759
aI19760
aI19763
aI19764
aI19766
aI19776
aI19794
aI19802
aI19804
aI19811
aI19813
aI19819
aI19820
aI19828
aI19831
aI19834
aI19835
aI19836
aI19837
aI19838
aI19839
aI19840
aI19841
aI19843
aI19851
aI19860
aI19861
aI19866
aI19867
aI19868
aI19869
aI19870
aI19871
aI19875
aI19876
aI19877
aI19878
aI19881
aI19885
aI19891
aI19897
aI19899
aI19902
aI19904
aI19914
aI19918
aI19921
aI19942
aI19948
aI19951
aI19960
aI19961
aI19962
aI19964
aI19965
aI19966
aI19974
aI19975
aI19986
aI19990
aI19995
aI20002
aI20012
aI20035
aI20061
aI20064
aI20069
aI20076
aI20077
aI20091
aI20102
aI20105
aI20107
aI20139
aI20142
aI20144
aI20151
aI20161
aI20164
aI20167
aI20175
aI20181
aI20198
aI20210
aI20212
aI20232
aI20246
aI20247
aI20249
aI20255
aI20257
aI20261
aI20262
aI20279
aI20285
aI20286
aI20289
aI20304
aI20308
aI20311
aI20325
aI20331
aI20341
aI20361
aI20381
aI20408
aI20453
aI20459
aI20463
aI20464
aI20474
aI20477
aI20483
aI20486
aI20487
aI20494
aI20523
aI20526
aI20534
aI20542
aI20551
aI20553
aI20556
aI20558
aI20559
aI20560
aI20561
aI20568
aI20572
aI20575
aI20578
aI20582
aI20584
aI20585
aI20586
aI20595
aI20599
aI20601
aI20609
aI20613
aI20614
aI20615
aI20616
aI20617
aI20618
aI20619
aI20620
aI20621
aI20623
aI20624
aI20626
aI20627
aI20628
aI20629
aI20631
aI20634
aI20638
aI20640
aI20641
aI20642
aI20643
aI20644
aI20645
aI20646
aI20647
aI20648
aI20649
aI20650
aI20651
aI20652
aI20653
aI20654
aI20656
aI20662
aI20663
aI20664
aI20665
aI20667
aI20669
aI20671
aI20672
aI20674
aI20675
aI20676
aI20677
aI20678
aI20679
aI20680
aI20681
aI20682
aI20683
aI20684
aI20688
aI20689
aI20692
aI20693
aI20697
aI20698
aI20699
aI20700
aI20701
aI20702
aI20704
aI20705
aI20707
aI20708
aI20709
aI20710
aI20711
aI20717
aI20718
aI20754
aI20755
aI20757
aI20765
aI20769
aI20770
aI20771
aI20773
aI20776
aI20779
aI20782
aI20788
aI20792
aI20797
aI20800
aI20811
aI20817
aI20823
aI20824
aI20833
aI20834
aI20835
aI20841
aI20843
aI20851
aI20854
aI20858
aI20860
aI20864
aI20872
aI20873
aI20895
aI20896
aI20906
aI20911
aI20912
aI20919
aI20920
aI20921
aI20924
aI20932
aI20956
aI20958
aI20960
aI20970
aI20973
aI20974
aI20975
aI20979
aI20989
aI20991
aI20999
aI21010
aI21024
aI21028
aI21052
aI21065
aI21068
aI21069
aI21070
aI21072
aI21074
aI21089
aI21090
aI21091
aI21092
aI21093
aI21101
aI21102
aI21104
aI21105
aI21111
aI21112
aI21122
aI21124
aI21127
aI21128
aI21129
aI21131
aI21132
aI21133
aI21134
aI21148
aI21164
aI21166
aI21168
aI21169
aI21170
aI21171
aI21172
aI21189
aI21190
aI21196
aI21202
aI21205
aI21208
aI21211
aI21213
aI21214
aI21217
aI21218
aI21220
aI21234
aI21237
aI21238
aI21241
aI21243
aI21244
aI21246
aI21247
aI21249
aI21253
aI21254
aI21256
aI21258
aI21281
aI21282
aI21284
aI21285
aI21286
aI21288
aI21291
aI21294
aI21300
aI21303
aI21304
aI21313
aI21330
aI21337
aI21342
aI21357
aI21358
aI21363
aI21375
aI21376
aI21389
aI21391
aI21394
aI21400
aI21406
aI21409
aI21417
aI21441
aI21455
aI21461
aI21465
aI21490
aI21491
aI21497
aI21512
aI21515
aI21516
aI21529
aI21530
aI21548
aI21555
aI21557
aI21559
aI21560
aI21569
aI21578
aI21589
aI21590
aI21591
aI21592
aI21597
aI21613
aI21615
aI21617
aI21618
aI21622
aI21624
aI21629
aI21632
aI21633
aI21634
aI21638
aI21641
aI21654
aI21660
aI21662
aI21665
aI21666
aI21675
aI21685
aI21687
aI21703
aI21705
aI21710
aI21711
aI21725
aI21727
aI21740
aI21741
aI21742
aI21744
aI21746
aI21753
aI21756
aI21767
aI21774
aI21784
aI21787
aI21790
aI21801
aI21814
aI21818
aI21833
aI21834
aI21838
aI21839
aI21845
aI21846
aI21856
aI21858
aI21870
aI21872
aI21873
aI21882
aI21889
aI21890
aI21910
aI21930
aI21932
aI21935
aI21938
aI21963
aI21978
aI21980
aI21989
aI21991
aI21993
aI21994
aI22001
aI22002
aI22004
aI22005
aI22025
aI22033
aI22034
aI22042
aI22043
aI22044
aI22047
aI22049
aI22060
aI22082
aI22099
aI22103
aI22109
aI22111
aI22142
aI22147
aI22158
aI22159
aI22161
aI22169
aI22184
aI22188
aI22195
aI22196
aI22202
aI22203
aI22206
aI22207
aI22209
aI22220
aI22226
aI22228
aI22230
aI22258
aI22276
aI22283
aI22287
aI22294
aI22306
aI22312
aI22317
aI22342
aI22355
aI22359
aI22371
aI22393
aI22398
aI22404
aI22409
aI22411
aI22413
aI22420
aI22421
aI22428
aI22439
aI22457
aI22458
aI22466
aI22467
aI22471
aI22475
aI22477
aI22478
aI22479
aI22484
aI22488
aI22494
aI22495
aI22502
aI22505
aI22508
aI22509
aI22510
aI22512
aI22513
aI22514
aI22516
aI22525
aI22526
aI22541
aI22543
aI22546
aI22549
aI22550
aI22552
aI22557
aI22559
aI22560
aI22568
aI22570
aI22575
aI22580
aI22584
aI22590
aI22592
aI22596
aI22597
aI22602
aI22607
aI22618
aI22619
aI22620
aI22622
aI22623
aI22624
aI22627
aI22629
aI22630
aI22632
aI22635
aI22636
aI22637
aI22638
aI22639
aI22640
aI22641
aI22643
aI22644
aI22645
aI22647
aI22648
aI22653
aI22661
aI22664
aI22665
aI22667
aI22671
aI22676
aI22679
aI22683
aI22690
aI22696
aI22698
aI22707
aI22713
aI22714
aI22716
aI22717
aI22718
aI22724
aI22725
aI22734
aI22740
aI22746
aI22750
aI22775
aI22780
aI22785
aI22791
aI22797
aI22800
aI22801
aI22802
aI22817
aI22831
aI22840
aI22843
aI22846
aI22860
aI22872
aI22874
aI22881
aI22890
aI22892
aI22904
aI22912
aI22913
aI22921
aI22924
aI22926
aI22952
aI22958
aI22960
aI22962
aI22966
aI22967
aI22977
aI22979
aI22980
aI22983
aI22985
aI22988
aI22990
aI22993
aI22997
aI23000
aI23002
aI23003
aI23004
aI23009
aI23016
aI23017
aI23024
aI23025
aI23032
aI23038
aI23040
aI23044
aI23052
aI23057
aI23058
aI23063
aI23067
aI23073
aI23074
aI23083
aI23095
aI23112
aI23127
aI23128
aI23130
aI23134
aI23136
aI23152
aI23156
aI23157
aI23161
aI23162
aI23167
aI23168
aI23169
aI23184
aI23185
aI23198
aI23214
aI23215
aI23220
aI23230
aI23241
aI23243
aI23254
aI23255
aI23256
aI23257
aI23258
aI23260
aI23261
aI23265
aI23271
aI23272
aI23281
aI23284
aI23285
aI23287
aI23290
aI23292
aI23293
aI23298
aI23311
aI23328
aI23339
aI23342
aI23343
aI23348
aI23349
aI23350
aI23352
aI23377
aI23378
aI23384
aI23394
aI23411
aI23417
aI23421
aI23424
aI23425
aI23427
aI23428
aI23429
aI23430
aI23431
aI23432
aI23433
aI23437
aI23438
aI23441
aI23443
aI23455
aI23457
aI23459
aI23469
aI23470
aI23475
aI23477
aI23480
aI23482
aI23485
aI23486
aI23491
aI23495
aI23497
aI23498
aI23507
aI23521
aI23522
aI23532
aI23536
aI23550
aI23557
aI23560
aI23567
aI23568
aI23569
aI23573
aI23575
aI23588
aI23603
aI23611
aI23626
aI23637
aI23638
aI23640
aI23647
aI23664
aI23665
aI23670
aI23679
aI23699
aI23707
aI23711
aI23737
aI23741
aI23747
aI23753
aI23754
aI23757
aI23764
aI23774
aI23782
aI23807
aI23809
aI23810
aI23811
aI23812
aI23813
aI23814
aI23815
aI23817
aI23818
aI23819
aI23822
aI23825
aI23826
aI23827
aI23828
aI23829
aI23830
aI23840
aI23841
aI23844
aI23846
aI23847
aI23848
aI23849
aI23850
aI23851
aI23852
aI23855
aI23856
aI23858
aI23859
aI23860
aI23861
aI23864
aI23874
aI23882
aI23884
aI23888
aI23889
aI23898
aI23903
aI23929
aI23930
aI23931
aI23933
aI23934
aI23943
aI23952
aI23958
aI23959
aI23960
aI23961
aI23962
aI23963
aI23964
aI23965
aI23966
aI23967
aI23968
aI23973
aI23982
aI24000
aI24006
aI24010
aI24011
aI24012
aI24013
aI24028
aI24032
aI24033
aI24037
aI24038
aI24039
aI24040
aI24041
aI24042
aI24043
aI24045
aI24051
aI24072
aI24085
aI24086
aI24098
aI24112
aI24113
aI24114
aI24115
aI24122
aI24124
aI24135
aI24142
aI24145
aI24149
aI24150
aI24151
aI24152
aI24153
aI24155
aI24158
aI24179
aI24182
aI24184
aI24186
aI24188
aI24189
aI24194
aI24201
aI24202
aI24203
aI24209
aI24211
aI24220
aI24224
aI24227
aI24229
aI24230
aI24231
aI24233
aI24234
aI24247
aI24248
aI24250
aI24251
aI24252
aI24253
aI24258
aI24265
aI24266
aI24268
aI24269
aI24283
aI24284
aI24285
aI24298
aI24299
aI24300
aI24301
aI24308
aI24317
aI24318
aI24327
aI24331
aI24340
aI24342
aI24345
aI24346
aI24358
aI24363
aI24366
aI24382
aI24385
aI24386
aI24392
aI24393
aI24394
aI24395
aI24401
aI24403
aI24415
aI24418
aI24421
aI24427
aI24447
aI24462
aI24468
aI24490
aI24498
aI24508
aI24513
aI24516
aI24517
aI24525
aI24526
aI24527
aI24528
aI24530
aI24536
aI24545
aI24557
aI24563
aI24583
aI24584
aI24586
aI24592
aI24595
aI24597
aI24598
aI24599
aI24600
aI24601
aI24602
aI24603
aI24604
aI24605
aI24606
aI24607
aI24608
aI24609
aI24610
aI24618
aI24619
aI24625
aI24626
aI24634
aI24637
aI24641
aI24642
aI24644
aI24645
aI24647
aI24659
aI24660
aI24661
aI24662
aI24663
aI24668
aI24670
aI24674
aI24675
aI24676
aI24677
aI24680
aI24681
aI24686
aI24687
aI24699
aI24700
aI24705
aI24715
aI24747
aI24778
aI24780
aI24781
aI24783
aI24784
aI24785
aI24791
aI24796
aI24807
aI24810
aI24812
aI24813
aI24814
aI24815
aI24817
aI24822
aI24829
aI24847
aI24850
aI24852
aI24861
aI24880
aI24887
aI24891
aI24896
aI24897
aI24907
aI24915
aI24916
aI24918
aI24923
aI24956
aI24957
aI24958
aI24971
aI24982
aI24987
aI24990
aI25055
aI25056
aI25061
aI25078
aI25083
aI25085
aI25094
aI25102
aI25105
aI25111
aI25120
aI25130
aI25132
aI25148
aI25170
aI25182
aI25183
aI25185
aI25189
aI25191
aI25235
aI25237
aI25239
aI25241
aI25242
aI25244
aI25246
aI25247
aI25249
aI25254
aI25260
aI25261
aI25264
aI25269
aI25337
aI25345
aI25366
aI25370
aI25377
aI25385
aI25390
aI25413
aI25425
aI25441
aI25444
aI25462
aI25486
aI25500
aI25510
aI25512
aI25515
aI25519
aI25533
aI25540
aI25544
aI25549
aI25552
aI25554
aI25556
aI25557
aI25559
aI25568
aI25575
aI25579
aI25584
aI25586
aI25593
aI25597
aI25598
aI25602
aI25604
aI25611
aI25617
aI25628
aI25638
aI25648
aI25658
aI25673
aI25682
aI25683
aI25744
aI25760
aI25764
aI25773
aI25787
aI25790
aI25791
aI25792
aI25795
aI25805
aI25812
aI25813
aI25814
aI25815
aI25816
aI25818
aI25819
aI25820
aI25821
aI25822
aI25824
aI25825
aI25826
aI25828
aI25830
aI25831
aI25832
aI25833
aI25837
aI25839
aI25841
aI25842
aI25843
aI25850
aI25851
aI25852
aI25853
aI25854
aI25858
aI25859
aI25862
aI25891
aI25903
aI25905
aI25906
aI25912
aI25919
aI25953
aI25956
aI25957
aI25958
aI25959
aI25960
aI25961
aI25968
aI25969
aI25972
aI25976
aI25983
aI25987
aI26005
aI26007
aI26015
aI26025
aI26030
aI26044
aI26056
aI26064
aI26076
aI26082
aI26092
aI26097
aI26099
aI26100
aI26101
aI26103
aI26104
aI26105
aI26106
aI26107
aI26110
aI26111
aI26112
aI26113
aI26114
aI26118
aI26119
aI26120
aI26123
aI26132
aI26145
aI26146
aI26149
aI26165
aI26175
aI26183
aI26184
aI26207
aI26210
aI26214
aI26216
aI26218
aI26219
aI26233
aI26239
aI26246
aI26247
aI26252
aI26255
aI26256
aI26269
aI26295
aI26301
aI26307
aI26318
aI26323
aI26325
aI26348
aI26349
aI26352
aI26353
aI26354
aI26359
aI26366
aI26380
aI26381
aI26382
aI26383
aI26405
aI26407
aI26408
aI26416
aI26419
aI26423
aI26428
aI26431
aI26432
aI26435
aI26439
aI26446
aI26461
aI26465
aI26468
aI26469
aI26470
aI26472
aI26483
aI26515
aI26517
aI26519
aI26524
aI26525
aI26532
aI26534
aI26535
aI26536
aI26537
aI26539
aI26544
aI26545
aI26568
aI26587
aI26591
aI26598
aI26600
aI26603
aI26605
aI26606
aI26607
aI26608
aI26609
aI26610
aI26612
aI26613
aI26614
aI26616
aI26617
aI26618
aI26619
aI26620
aI26621
aI26622
aI26623
aI26626
aI26628
aI26630
aI26632
aI26635
aI26656
aI26673
aI26692
aI26714
aI26715
aI26717
aI26718
aI26720
aI26737
aI26738
aI26739
aI26740
aI26745
aI26755
aI26768
aI26771
aI26774
aI26777
aI26778
aI26779
aI26784
aI26785
aI26786
aI26787
aI26788
aI26790
aI26797
aI26799
aI26802
aI26824
aI26825
aI26826
aI26827
aI26828
aI26829
aI26830
aI26831
aI26832
aI26833
aI26834
aI26835
aI26836
aI26843
aI26845
aI26847
aI26849
aI26855
aI26856
aI26862
aI26864
aI26883
aI26888
aI26902
aI26913
aI26919
aI26924
aI26925
aI26930
aI26933
aI26937
aI26939
aI26947
aI26950
aI26955
aI26958
aI26966
aI26982
aI26983
aI26984
aI26991
aI26999
aI27000
aI27014
aI27015
aI27017
aI27021
aI27037
aI27041
aI27046
aI27054
aI27058
aI27060
aI27068
aI27078
aI27079
aI27089
aI27091
aI27101
aI27113
aI27114
aI27115
aI27124
aI27126
aI27128
aI27141
aI27143
aI27146
aI27147
aI27152
aI27154
aI27170
aI27174
aI27180
aI27182
aI27188
aI27191
aI27199
aI27208
aI27213
aI27215
aI27216
aI27217
aI27218
aI27220
aI27222
aI27225
aI27232
aI27234
aI27238
aI27260
aI27261
aI27267
aI27269
aI27271
aI27273
aI27277
aI27281
aI27286
aI27291
aI27292
aI27312
aI27318
aI27326
aI27327
aI27328
aI27329
aI27330
aI27331
aI27332
aI27333
aI27334
aI27335
aI27336
aI27337
aI27338
aI27339
aI27350
aI27353
aI27356
aI27358
aI27364
aI27368
aI27370
aI27376
aI27377
aI27385
aI27395
aI27408
aI27413
aI27417
aI27418
aI27423
aI27430
aI27434
aI27453
aI27455
aI27457
aI27458
aI27469
aI27473
aI27474
aI27475
aI27476
aI27491
aI27492
aI27495
aI27496
aI27498
aI27501
aI27503
aI27504
aI27505
aI27506
aI27507
aI27515
aI27516
aI27517
aI27519
aI27520
aI27522
aI27523
aI27524
aI27526
aI27528
aI27529
aI27539
aI27542
aI27550
aI27553
aI27557
aI27563
aI27565
aI27566
aI27567
aI27569
aI27570
aI27574
aI27580
aI27581
aI27582
aI27583
aI27584
aI27585
aI27589
aI27590
aI27591
aI27594
aI27601
aI27615
aI27622
aI27623
aI27624
aI27625
aI27627
aI27630
aI27631
aI27632
aI27636
aI27639
aI27641
aI27644
aI27647
aI27648
aI27657
aI27658
aI27664
aI27669
aI27671
aI27681
aI27690
aI27693
aI27694
aI27702
aI27707
aI27726
aI27730
aI27731
aI27733
aI27741
aI27748
aI27758
aI27760
aI27768
aI27769
aI27770
aI27779
aI27799
aI27812
aI27814
aI27821
aI27822
aI27833
aI27835
aI27840
aI27850
aI27852
aI27855
aI27857
aI27869
aI27884
aI27890
aI27896
aI27925
aI27968
aI27969
aI27970
aI27974
aI27975
aI27978
aI27980
aI27983
aI27987
aI27990
aI27992
aI27993
aI27995
aI27996
aI27998
aI27999
aI28000
aI28001
aI28004
aI28007
aI28008
aI28012
aI28013
aI28014
aI28015
aI28016
aI28017
aI28019
aI28021
aI28022
aI28023
aI28025
aI28026
aI28027
aI28028
aI28029
aI28030
aI28031
aI28032
aI28033
aI28034
aI28035
aI28036
aI28037
aI28038
aI28039
aI28040
aI28041
aI28042
aI28043
aI28044
aI28045
aI28046
aI28047
aI28048
aI28049
aI28050
aI28051
aI28052
aI28053
aI28054
aI28055
aI28056
aI28057
aI28058
aI28059
aI28060
aI28061
aI28062
aI28063
aI28064
aI28065
aI28066
aI28067
aI28068
aI28069
aI28070
aI28071
aI28072
aI28073
aI28074
aI28075
aI28076
aI28077
aI28078
aI28079
aI28080
aI28081
aI28082
aI28083
aI28084
aI28085
aI28086
aI28087
aI28088
aI28089
aI28090
aI28091
aI28092
aI28094
aI28095
aI28101
aI28109
aI28130
aI28133
aI28145
aI28171
aI28174
aI28176
aI28180
aI28222
aI28231
aI28235
aI28236
aI28237
aI28246
aI28250
aI28254
aI28286
aI28298
aI28305
aI28307
aI28308
aI28310
aI28318
aI28319
aI28327
aI28341
aI28351
aI28357
aI28412
aI28416
aI28432
aI28439
aI28455
aI28458
aI28466
aI28476
aI28481
aI28482
aI28483
aI28504
aI28552
aI28590
aI28591
aI28595
aI28597
aI28618
aI28621
aI28626
aI28627
aI28630
aI28640
aI28646
aI28652
aI28660
aI28666
aI28691
aI28705
aI28714
aI28716
aI28717
aI28720
aI28723
aI28724
aI28725
aI28728
aI28736
aI28745
aI28750
aI28762
aI28773
aI28806
aI28809
aI28812
aI28838
aI28840
aI28855
aI28863
aI28878
aI28882
aI28899
aI28906
aI28909
aI28920
aI28921
aI28926
aI28931
aI28939
aI28947
aI28951
aI28955
aI28968
aI28973
aI28986
aI28993
aI29012
aI29045
aI29058
aI29069
aI29070
aI29081
aI29101
aI29103
aI29106
aI29107
aI29119
aI29162
aI29163
aI29179
aI29182
aI29183
aI29194
aI29199
aI29217
aI29225
aI29229
aI29274
aI29275
aI29297
aI29298
aI29301
aI29315
aI29317
aI29321
aI29323
aI29331
aI29346
aI29357
aI29360
aI29366
aI29383
aI29403
aI29409
aI29416
aI29419
aI29420
aI29424
aI29425
aI29432
aI29434
aI29440
aI29467
aI29471
aI29478
aI29481
aI29491
aI29504
aI29534
aI29536
aI29542
aI29544
aI29545
aI29546
aI29547
aI29562
aI29565
aI29567
aI29568
aI29572
aI29575
aI29577
aI29579
aI29585
aI29598
aI29609
aI29621
aI29622
aI29630
aI29654
aI29656
aI29665
aI29676
aI29681
aI29723
aI29738
aI29744
aI29760
aI29771
aI29774
aI29776
aI29780
aI29802
aI29809
aI29813
aI29814
aI29819
aI29823
aI29836
aI29846
aI29853
aI29854
aI29855
aI29858
aI29862
aI29866
aI29891
aI29905
aI29909
aI29913
aI29917
aI29926
aI29927
aI29953
aI29971
aI29975
aI29977
aI29992
aI30004
aI30009
aI30010
aI30014
aI30018
aI30022
aI30028
aI30036
aI30037
aI30041
aI30062
aI30063
aI30066
aI30067
aI30068
aI30070
aI30075
aI30077
aI30082
aI30095
aI30099
aI30100
aI30104
aI30105
aI30106
aI30109
aI30110
aI30112
aI30114
aI30116
aI30177
aI30182
aI30192
aI30193
aI30196
aI30197
aI30198
aI30199
aI30201
aI30204
aI30205
aI30206
aI30208
aI30209
aI30211
aI30212
aI30213
aI30222
aI30224
aI30225
aI30226
aI30227
aI30228
aI30229
aI30230
aI30231
aI30232
aI30235
aI30236
aI30237
aI30243
aI30244
aI30248
aI30249
aI30250
aI30251
aI30252
aI30253
aI30254
aI30255
aI30256
aI30257
aI30260
aI30261
aI30262
aI30270
aI30273
aI30277
aI30294
aI30297
aI30299
aI30304
aI30308
aI30309
aI30310
aI30314
aI30317
aI30324
aI30326
aI30327
aI30329
aI30331
aI30333
aI30334
aI30336
aI30338
aI30339
aI30344
aI30346
aI30353
aI30356
aI30357
aI30358
aI30363
aI30365
aI30366
aI30367
aI30369
aI30370
aI30372
aI30379
aI30380
aI30382
aI30387
aI30394
aI30395
aI30398
aI30402
aI30408
aI30411
aI30413
aI30415
aI30416
aI30435
aI30439
aI30447
aI30449
aI30452
aI30454
aI30456
aI30460
aI30461
aI30470
aI30477
aI30480
aI30481
aI30483
aI30484
aI30488
aI30490
aI30491
aI30492
aI30494
aI30496
aI30497
aI30499
aI30500
aI30514
aI30515
aI30519
aI30523
aI30525
aI30529
aI30530
aI30541
aI30553
aI30555
aI30558
aI30559
aI30560
aI30561
aI30563
aI30564
aI30567
aI30568
aI30573
aI30574
aI30578
aI30579
aI30580
aI30582
aI30583
aI30646
aI30647
aI30648
aI30649
aI30652
aI30653
aI30655
aI30656
aI30658
aI30662
aI30669
aI30672
aI30677
aI30679
aI30683
aI30701
aI30704
aI30717
aI30723
aI30732
aI30748
aI30749
aI30751
aI30753
aI30755
aI30758
aI30759
aI30768
aI30784
aI30786
aI30797
aI30807
aI30822
aI30883
aI30892
aI30929
aI30937
aI30960
aI30962
aI30970
aI30972
aI30977
aI30984
aI30986
aI30995
aI31024
aI31027
aI31028
aI31029
aI31031
aI31038
aI31047
aI31048
aI31072
aI31132
aI31133
aI31162
aI31172
aI31178
aI31180
aI31198
aI31219
aI31255
aI31297
aI31365
aI31371
aI31381
aI31382
aI31385
aI31431
aI31439
aI31459
aI31527
aI31576
aI31583
aI31584
aI31585
aI31644
aI31645
aI31653
aI31664
aI31693
aI31723
aI31726
aI31733
aI31734
aI31735
aI31737
aI31762
aI31766
aI31773
aI31779
aI31783
aI31784
aI31785
aI31786
aI31787
aI31791
aI31792
aI31842
aI31850
aI31868
aI31872
aI31933
aI31960
aI31965
aI31972
aI31987
aI32007
aI32020
aI32094
aI32103
aI32122
aI32157
aI32166
aI32170
aI32176
aI32177
aI32185
aI32187
aI32236
aI32238
aI32240
aI32281
aI32288
aI32295
aI32367
aI32383
aI32396
aI32473
aI32522
aI32563
aI32565
aI32568
aI32569
aI32578
aI32600
aI32614
aI32616
aI32634
aI32665
aI32668
aI32675
aI32680
aI32712
aI32769
aI32799
aI32801
aI32809
aI32821
aI32831
aI32876
aI33008
aI33016
aI33063
aI33104
aI33126
aI33164
aI33165
aI33169
aI33170
aI33178
aI33193
aI33283
aI33317
aI33319
aI33330
aI33448
aI33450
aI33530
aI33531
aI33558
aI33564
aI33573
aI33580
aI33606
aI33608
aI33610
aI33611
aI33614
aI33615
aI33619
aI33620
aI33626
aI33634
aI33636
aI33637
aI33640
aI33657
aI33670
aI33676
aI33677
aI33682
aI33689
aI33690
aI33691
aI33728
aI33729
aI33738
aI33749
aI33767
aI33768
aI33771
aI33786
aI33787
aI33789
aI33794
aI33798
aI33799
aI33836
aI33843
aI33851
aI33877
aI33901
aI33902
aI33927
aI33930
aI33934
aI33935
aI33943
aI33944
aI33945
aI33946
aI33947
aI33958
aI33961
aI33962
aI33967
aI33976
aI33982
aI33983
aI33984
aI33986
aI33993
aI34006
aI34015
aI34016
aI34022
aI34048
aI34049
aI34067
aI34075
aI34079
aI34087
aI34107
aI34113
aI34115
aI34116
aI34117
aI34119
aI34124
aI34131
aI34133
aI34148
aI34169
aI34176
aI34205
aI34233
aI34234
aI34235
aI34236
aI34245
aI34257
aI34265
aI34291
aI34297
aI34303
aI34304
aI34305
aI34308
aI34317
aI34320
aI34355
aI34383
aI34384
aI34386
aI34412
aI34422
aI34459
aI34516
aI34560
aI34561
aI34672
aI34697
aI34716
aI34726
aI34797
aI34821
aI34822
aI34824
aI34825
aI34827
aI34859
aI34868
aI34900
aI34904
aI34924
aI34930
aI34938
aI34944
aI34947
aI35017
aI35022
aI35030
aI35059
aI35061
aI35071
aI35075
aI35085
aI35119
aI35144
a.(lp5439
a(lp5440
a(lp5441
a(lp5442
a(lp5443
a(lp5444
a(lp5445
a(lp5446
a(lp5447
a(lp5448
a(lp5449
a(lp5450
a(lp5451
a(lp5452
a(lp5453
a(lp5454
a(lp5455
a(lp5456
a(lp5457
a(lp5458
a(lp5459
a(lp5460
a(lp5461
a(lp5462
a(lp5463
a(lp5464
a(lp5465
a(lp5466
a(lp5467
a(lp5468
a(lp5469
a(lp5470
a(lp5471
a(lp5472
a(lp5473
a(lp5474
a(lp5475
a(lp5476
a(lp5477
a(lp5478
a(lp5479
a(lp5480
a(lp5481
a(lp5482
a(lp5483
a(lp5484
a(lp5485
a(lp5486
a(lp5487
a(lp5488
a(lp5489
a(lp5490
a(lp5491
a(lp5492
a(lp5493
a(lp5494
a(lp5495
a(lp5496
a(lp5497
a(lp5498
a(lp5499
a(lp5500
a(lp5501
a(lp5502
a(lp5503
a(lp5504
a(lp5505
a(lp5506
a(lp5507
a(lp5508
a(lp5509
a(lp5510
a(lp5511
a(lp5512
a(lp5513
a(lp5514
a(lp5515
a(lp5516
a(lp5517
a(lp5518
a(lp5519
a(lp5520
a(lp5521
a(lp5522
a(lp5523
a(lp5524
a(lp5525
a(lp5526
a(lp5527
a(lp5528
a(lp5529
a(lp5530
a(lp5531
a(lp5532
a(lp5533
a(lp5534
a(lp5535
a(lp5536
a(lp5537
a(lp5538
a(lp5539
a(lp5540
a(lp5541
a(lp5542
a(lp5543
a(lp5544
a(lp5545
a(lp5546
a(lp5547
a(lp5548
a(lp5549
a(lp5550
a(lp5551
a(lp5552
a(lp5553
a(lp5554
a(lp5555
a(lp5556
a(lp5557
a(lp5558
a(lp5559
a(lp5560
a(lp5561
a(lp5562
a(lp5563
a(lp5564
a(lp5565
a(lp5566
a(lp5567
a(lp5568
a(lp5569
a(lp5570
a(lp5571
a(lp5572
a(lp5573
a(lp5574
a(lp5575
a(lp5576
a(lp5577
a(lp5578
a(lp5579
a(lp5580
a(lp5581
a(lp5582
a(lp5583
a(lp5584
a(lp5585
a(lp5586
a(lp5587
a(lp5588
a(lp5589
a(lp5590
a(lp5591
a(lp5592
a(lp5593
a(lp5594
a(lp5595
a(lp5596
a(lp5597
a(lp5598
a(lp5599
a(lp5600
a(lp5601
a(lp5602
a(lp5603
a(lp5604
a(lp5605
a(lp5606
a(lp5607
a(lp5608
a(lp5609
a(lp5610
a(lp5611
a(lp5612
a(lp5613
a(lp5614
a(lp5615
a(lp5616
a(lp5617
a(lp5618
a(lp5619
a(lp5620
a(lp5621
a(lp5622
a(lp5623
a(lp5624
a(lp5625
a(lp5626
a(lp5627
a(lp5628
a(lp5629
a(lp5630
a(lp5631
a(lp5632
a(lp5633
a(lp5634
a(lp5635
a(lp5636
a(lp5637
a(lp5638
a(lp5639
a(lp5640
a(lp5641
a(lp5642
a(lp5643
a(lp5644
a(lp5645
a(lp5646
a(lp5647
a(lp5648
a(lp5649
a(lp5650
a(lp5651
a(lp5652
a(lp5653
a(lp5654
a(lp5655
a(lp5656
a(lp5657
a(lp5658
a(lp5659
a(lp5660
a(lp5661
a(lp5662
a(lp5663
a(lp5664
a(lp5665
a(lp5666
a(lp5667
a(lp5668
a(lp5669
a(lp5670
a(lp5671
a(lp5672
a(lp5673
a(lp5674
a(lp5675
a(lp5676
a(lp5677
a(lp5678
a(lp5679
a(lp5680
a(lp5681
a(lp5682
a(lp5683
a(lp5684
a(lp5685
a(lp5686
a(lp5687
a(lp5688
a(lp5689
a(lp5690
a(lp5691
a(lp5692
a(lp5693
a(lp5694
a(lp5695
a(lp5696
a(lp5697
a(lp5698
a(lp5699
a(lp5700
a(lp5701
a(lp5702
a(lp5703
a(lp5704
a(lp5705
a(lp5706
a(lp5707
a(lp5708
a(lp5709
a(lp5710
a(lp5711
a(lp5712
a(lp5713
a(lp5714
a(lp5715
a(lp5716
a(lp5717
a(lp5718
a(lp5719
a(lp5720
a(lp5721
a(lp5722
a(lp5723
a(lp5724
a(lp5725
a(lp5726
a(lp5727
a(lp5728
a(lp5729
a(lp5730
a(lp5731
a(lp5732
a(lp5733
a(lp5734
a(lp5735
a(lp5736
a(lp5737
a(lp5738
a(lp5739
a(lp5740
a(lp5741
a(lp5742
a(lp5743
a(lp5744
a(lp5745
a(lp5746
a(lp5747
a(lp5748
a(lp5749
a(lp5750
a(lp5751
a(lp5752
a(lp5753
a(lp5754
a(lp5755
a(lp5756
a(lp5757
a(lp5758
a(lp5759
a(lp5760
a(lp5761
a(lp5762
a(lp5763
a(lp5764
a(lp5765
a(lp5766
a(lp5767
a(lp5768
a(lp5769
a(lp5770
a(lp5771
a(lp5772
a(lp5773
a(lp5774
a(lp5775
a(lp5776
a(lp5777
a(lp5778
a(lp5779
a(lp5780
a(lp5781
a(lp5782
a(lp5783
a(lp5784
a(lp5785
a(lp5786
a(lp5787
a(lp5788
a(lp5789
a(lp5790
a(lp5791
a(lp5792
a(lp5793
a(lp5794
a(lp5795
a(lp5796
a(lp5797
a(lp5798
a(lp5799
a(lp5800
a(lp5801
a(lp5802
a(lp5803
a(lp5804
a(lp5805
a(lp5806
a(lp5807
a(lp5808
a(lp5809
a(lp5810
a(lp5811
a(lp5812
a(lp5813
a(lp5814
a(lp5815
a(lp5816
a(lp5817
a(lp5818
a(lp5819
a(lp5820
a(lp5821
a(lp5822
a(lp5823
a(lp5824
a(lp5825
a(lp5826
a(lp5827
a(lp5828
a(lp5829
a(lp5830
a(lp5831
a(lp5832
a(lp5833
a(lp5834
a(lp5835
a(lp5836
a(lp5837
a(lp5838
a(lp5839
a(lp5840
a(lp5841
a(lp5842
a(lp5843
a(lp5844
a(lp5845
a(lp5846
a(lp5847
a(lp5848
a(lp5849
a(lp5850
a(lp5851
a(lp5852
a(lp5853
a(lp5854
a(lp5855
a(lp5856
a(lp5857
a(lp5858
a(lp5859
a(lp5860
a(lp5861
a(lp5862
a(lp5863
a(lp5864
a(lp5865
a(lp5866
a(lp5867
a(lp5868
a(lp5869
a(lp5870
a(lp5871
a(lp5872
a(lp5873
a(lp5874
a(lp5875
a(lp5876
a(lp5877
a(lp5878
a(lp5879
a(lp5880
a(lp5881
a(lp5882
a(lp5883
a(lp5884
a(lp5885
a(lp5886
a(lp5887
a(lp5888
a(lp5889
a(lp5890
a(lp5891
a(lp5892
a(lp5893
a(lp5894
a(lp5895
a(lp5896
a(lp5897
a(lp5898
a(lp5899
a(lp5900
a(lp5901
a(lp5902
a(lp5903
a(lp5904
a(lp5905
a(lp5906
a(lp5907
a(lp5908
a(lp5909
a(lp5910
a(lp5911
a(lp5912
a(lp5913
a(lp5914
a(lp5915
a(lp5916
a(lp5917
a(lp5918
a(lp5919
a(lp5920
a(lp5921
a(lp5922
a(lp5923
a(lp5924
a(lp5925
a(lp5926
a(lp5927
a(lp5928
a(lp5929
a(lp5930
a(lp5931
a(lp5932
a(lp5933
a(lp5934
a(lp5935
a(lp5936
a(lp5937
a(lp5938
a(lp5939
a(lp5940
a(lp5941
a(lp5942
a(lp5943
a(lp5944
a(lp5945
a(lp5946
a(lp5947
a(lp5948
a(lp5949
a(lp5950
a(lp5951
a(lp5952
a(lp5953
a(lp5954
a(lp5955
a(lp5956
a(lp5957
a(lp5958
a(lp5959
a(lp5960
a(lp5961
a(lp5962
a(lp5963
a(lp5964
a(lp5965
a(lp5966
a(lp5967
a(lp5968
a(lp5969
a(lp5970
a(lp5971
a(lp5972
a(lp5973
a(lp5974
a(lp5975
a(lp5976
a(lp5977
a(lp5978
a(lp5979
a(lp5980
a(lp5981
a(lp5982
a(lp5983
a(lp5984
a(lp5985
a(lp5986
a(lp5987
a(lp5988
a(lp5989
a(lp5990
a(lp5991
a(lp5992
a(lp5993
a(lp5994
a(lp5995
a(lp5996
a(lp5997
a(lp5998
a(lp5999
a(lp6000
a(lp6001
a(lp6002
a(lp6003
a(lp6004
a(lp6005
a(lp6006
a(lp6007
a(lp6008
a(lp6009
a(lp6010
a(lp6011
a(lp6012
a(lp6013
a(lp6014
a(lp6015
a(lp6016
a(lp6017
a(lp6018
a(lp6019
a(lp6020
a(lp6021
a(lp6022
a(lp6023
a(lp6024
a(lp6025
a(lp6026
a(lp6027
a(lp6028
a(lp6029
a(lp6030
a(lp6031
a(lp6032
a(lp6033
a(lp6034
a(lp6035
a(lp6036
a(lp6037
a(lp6038
a(lp6039
a(lp6040
a(lp6041
a(lp6042
a(lp6043
a(lp6044
a(lp6045
a(lp6046
a(lp6047
a(lp6048
a(lp6049
a(lp6050
a(lp6051
a(lp6052
a(lp6053
a(lp6054
a(lp6055
a(lp6056
a(lp6057
a(lp6058
a(lp6059
a(lp6060
a(lp6061
a(lp6062
a(lp6063
a(lp6064
a(lp6065
a(lp6066
a(lp6067
a(lp6068
a(lp6069
a(lp6070
a(lp6071
a(lp6072
a(lp6073
a(lp6074
a(lp6075
a(lp6076
a(lp6077
a(lp6078
a(lp6079
a(lp6080
a(lp6081
a(lp6082
a(lp6083
a(lp6084
a(lp6085
a(lp6086
a(lp6087
a(lp6088
a(lp6089
a(lp6090
a(lp6091
a(lp6092
a(lp6093
a(lp6094
a(lp6095
a(lp6096
a(lp6097
a(lp6098
a(lp6099
a(lp6100
a(lp6101
a(lp6102
a(lp6103
a(lp6104
a(lp6105
a(lp6106
a(lp6107
a(lp6108
a(lp6109
a(lp6110
a(lp6111
a(lp6112
a(lp6113
a(lp6114
a(lp6115
a(lp6116
a(lp6117
a(lp6118
a(lp6119
a(lp6120
a(lp6121
a(lp6122
a(lp6123
a(lp6124
a(lp6125
a(lp6126
a(lp6127
a(lp6128
a(lp6129
a(lp6130
a(lp6131
a(lp6132
a(lp6133
a(lp6134
a(lp6135
a(lp6136
a(lp6137
a(lp6138
a(lp6139
a(lp6140
a(lp6141
a(lp6142
a(lp6143
a(lp6144
a(lp6145
a(lp6146
a(lp6147
a(lp6148
a(lp6149
a(lp6150
a(lp6151
a(lp6152
a(lp6153
a(lp6154
a(lp6155
a(lp6156
a(lp6157
a(lp6158
a(lp6159
a(lp6160
a(lp6161
a(lp6162
a(lp6163
a(lp6164
a(lp6165
a(lp6166
a(lp6167
a(lp6168
a(lp6169
a(lp6170
a(lp6171
a(lp6172
a(lp6173
a(lp6174
a(lp6175
a(lp6176
a(lp6177
a(lp6178
a(lp6179
a(lp6180
a(lp6181
a(lp6182
a(lp6183
a(lp6184
a(lp6185
a(lp6186
a(lp6187
a(lp6188
a(lp6189
a(lp6190
a(lp6191
a(lp6192
a(lp6193
a(lp6194
a(lp6195
a(lp6196
a(lp6197
a.